; Function Attrs: mustprogress uwtable
define noundef ptr @_ZN18OpenImageIO_v2_6_011ImageOutput18to_native_scanlineENS_8TypeDescEPKvlRSt6vectorIhSaIhEEjii(ptr noundef nonnull align 8 dereferenceable(184) %this, ptr nocapture noundef readonly %format, ptr noundef %data, i64 noundef %xstride, ptr noundef nonnull align 8 dereferenceable(24) %scratch, i32 noundef %dither, i32 noundef %yorigin, i32 noundef %zorigin) local_unnamed_addr #5 align 2 {
entry:
  %agg.tmp = alloca %"struct.OpenImageIO_v2_6_0::TypeDesc", align 4
  %m_spec = getelementptr inbounds i8, ptr %this, i64 8
  %width = getelementptr inbounds i8, ptr %this, i64 20
  %0 = load i32, ptr %width, align 4
  %1 = load i8, ptr %format, align 4
  store i8 %1, ptr %agg.tmp, align 4
  %aggregate.i = getelementptr inbounds i8, ptr %agg.tmp, i64 1
  %aggregate3.i = getelementptr inbounds i8, ptr %format, i64 1
  %2 = load i8, ptr %aggregate3.i, align 1
  store i8 %2, ptr %aggregate.i, align 1
  %vecsemantics.i = getelementptr inbounds i8, ptr %agg.tmp, i64 2
  %vecsemantics4.i = getelementptr inbounds i8, ptr %format, i64 2
  %3 = load i8, ptr %vecsemantics4.i, align 2
  store i8 %3, ptr %vecsemantics.i, align 2
  %reserved.i = getelementptr inbounds i8, ptr %agg.tmp, i64 3
  store i8 0, ptr %reserved.i, align 1
  %arraylen.i = getelementptr inbounds i8, ptr %agg.tmp, i64 4
  %arraylen5.i = getelementptr inbounds i8, ptr %format, i64 4
  %4 = load i32, ptr %arraylen5.i, align 4
  store i32 %4, ptr %arraylen.i, align 4
  %5 = load i32, ptr %m_spec, align 8
  %call = call noundef ptr @_ZN18OpenImageIO_v2_6_011ImageOutput19to_native_rectangleEiiiiiiNS_8TypeDescEPKvlllRSt6vectorIhSaIhEEjiii(ptr noundef nonnull align 8 dereferenceable(184) %this, i32 noundef 0, i32 noundef %0, i32 noundef 0, i32 noundef 1, i32 noundef 0, i32 noundef 1, ptr noundef nonnull %agg.tmp, ptr noundef %data, i64 noundef %xstride, i64 noundef 0, i64 noundef 0, ptr noundef nonnull align 8 dereferenceable(24) %scratch, i32 noundef %dither, i32 noundef %5, i32 noundef %yorigin, i32 noundef %zorigin)
  ret ptr %call
}